target datalayout = "e-m:e-p270:32:32-p271:32:32-p272:64:64-i64:64-i128:128-f80:128-n8:16:32:64-S128"
target triple = "x86_64-pc-linux-gnu"

%struct.LPCContext = type { i32, i32, i32, ptr, ptr, ptr, ptr, [2 x %struct.LLSModel] }
%struct.LLSModel = type { [36 x [36 x double]], [32 x [32 x double]], [32 x double], i32, ptr, ptr, [8 x i8] }

; Function Attrs: inlinehint nounwind uwtable
define internal void @compute_ref_coefs(ptr noundef %0, i32 noundef %1, ptr noundef %2, ptr noundef %3) #2 {
  %5 = alloca ptr, align 8
  %6 = alloca i32, align 4
  %7 = alloca ptr, align 8
  %8 = alloca ptr, align 8
  %9 = alloca double, align 8
  %10 = alloca [32 x double], align 16
  %11 = alloca [32 x double], align 16
  %12 = alloca i32, align 4
  %13 = alloca i32, align 4
  %14 = alloca i32, align 4
  %15 = alloca i32, align 4
  store ptr %0, ptr %5, align 8, !tbaa !13
  store i32 %1, ptr %6, align 4, !tbaa !11
  store ptr %2, ptr %7, align 8, !tbaa !13
  store ptr %3, ptr %8, align 8, !tbaa !13
  call void @llvm.lifetime.start.p0(i64 8, ptr %9) #9
  call void @llvm.lifetime.start.p0(i64 256, ptr %10) #9
  call void @llvm.lifetime.start.p0(i64 256, ptr %11) #9
  call void @llvm.lifetime.start.p0(i64 4, ptr %12) #9
  store i32 0, ptr %12, align 4, !tbaa !11
  br label %16

16:                                               ; preds = %34, %4
  %17 = load i32, ptr %12, align 4, !tbaa !11
  %18 = load i32, ptr %6, align 4, !tbaa !11
  %19 = icmp slt i32 %17, %18
  br i1 %19, label %21, label %20

20:                                               ; preds = %16
  call void @llvm.lifetime.end.p0(i64 4, ptr %12) #9
  br label %37

21:                                               ; preds = %16
  %22 = load ptr, ptr %5, align 8, !tbaa !13
  %23 = load i32, ptr %12, align 4, !tbaa !11
  %24 = add nsw i32 %23, 1
  %25 = sext i32 %24 to i64
  %26 = getelementptr inbounds double, ptr %22, i64 %25
  %27 = load double, ptr %26, align 8, !tbaa !20
  %28 = load i32, ptr %12, align 4, !tbaa !11
  %29 = sext i32 %28 to i64
  %30 = getelementptr inbounds [32 x double], ptr %11, i64 0, i64 %29
  store double %27, ptr %30, align 8, !tbaa !20
  %31 = load i32, ptr %12, align 4, !tbaa !11
  %32 = sext i32 %31 to i64
  %33 = getelementptr inbounds [32 x double], ptr %10, i64 0, i64 %32
  store double %27, ptr %33, align 8, !tbaa !20
  br label %34

34:                                               ; preds = %21
  %35 = load i32, ptr %12, align 4, !tbaa !11
  %36 = add nsw i32 %35, 1
  store i32 %36, ptr %12, align 4, !tbaa !11
  br label %16, !llvm.loop !22

37:                                               ; preds = %20
  %38 = load ptr, ptr %5, align 8, !tbaa !13
  %39 = getelementptr inbounds double, ptr %38, i64 0
  %40 = load double, ptr %39, align 8, !tbaa !20
  store double %40, ptr %9, align 8, !tbaa !20
  %41 = getelementptr inbounds [32 x double], ptr %11, i64 0, i64 0
  %42 = load double, ptr %41, align 16, !tbaa !20
  %43 = fneg nsz double %42
  %44 = load double, ptr %9, align 8, !tbaa !20
  %45 = fcmp nsz une double %44, 0.000000e+00
  br i1 %45, label %46, label %48

46:                                               ; preds = %37
  %47 = load double, ptr %9, align 8, !tbaa !20
  br label %49

48:                                               ; preds = %37
  br label %49

49:                                               ; preds = %48, %46
  %50 = phi nsz double [ %47, %46 ], [ 1.000000e+00, %48 ]
  %51 = fdiv nsz double %43, %50
  %52 = load ptr, ptr %7, align 8, !tbaa !13
  %53 = getelementptr inbounds double, ptr %52, i64 0
  store double %51, ptr %53, align 8, !tbaa !20
  %54 = getelementptr inbounds [32 x double], ptr %11, i64 0, i64 0
  %55 = load double, ptr %54, align 16, !tbaa !20
  %56 = load ptr, ptr %7, align 8, !tbaa !13
  %57 = getelementptr inbounds double, ptr %56, i64 0
  %58 = load double, ptr %57, align 8, !tbaa !20
  %59 = load double, ptr %9, align 8, !tbaa !20
  %60 = call nsz double @llvm.fmuladd.f64(double %55, double %58, double %59)
  store double %60, ptr %9, align 8, !tbaa !20
  %61 = load ptr, ptr %8, align 8, !tbaa !13
  %62 = icmp ne ptr %61, null
  br i1 %62, label %63, label %67

63:                                               ; preds = %49
  %64 = load double, ptr %9, align 8, !tbaa !20
  %65 = load ptr, ptr %8, align 8, !tbaa !13
  %66 = getelementptr inbounds double, ptr %65, i64 0
  store double %64, ptr %66, align 8, !tbaa !20
  br label %67

67:                                               ; preds = %63, %49
  call void @llvm.lifetime.start.p0(i64 4, ptr %13) #9
  store i32 1, ptr %13, align 4, !tbaa !11
  br label %68

68:                                               ; preds = %157, %67
  %69 = load i32, ptr %13, align 4, !tbaa !11
  %70 = load i32, ptr %6, align 4, !tbaa !11
  %71 = icmp slt i32 %69, %70
  br i1 %71, label %73, label %72

72:                                               ; preds = %68
  store i32 5, ptr %14, align 4
  call void @llvm.lifetime.end.p0(i64 4, ptr %13) #9
  br label %160

73:                                               ; preds = %68
  call void @llvm.lifetime.start.p0(i64 4, ptr %15) #9
  store i32 0, ptr %15, align 4, !tbaa !11
  br label %74

74:                                               ; preds = %120, %73
  %75 = load i32, ptr %15, align 4, !tbaa !11
  %76 = load i32, ptr %6, align 4, !tbaa !11
  %77 = load i32, ptr %13, align 4, !tbaa !11
  %78 = sub nsw i32 %76, %77
  %79 = icmp slt i32 %75, %78
  br i1 %79, label %81, label %80

80:                                               ; preds = %74
  store i32 8, ptr %14, align 4
  call void @llvm.lifetime.end.p0(i64 4, ptr %15) #9
  br label %123

81:                                               ; preds = %74
  %82 = load i32, ptr %15, align 4, !tbaa !11
  %83 = add nsw i32 %82, 1
  %84 = sext i32 %83 to i64
  %85 = getelementptr inbounds [32 x double], ptr %11, i64 0, i64 %84
  %86 = load double, ptr %85, align 8, !tbaa !20
  %87 = load ptr, ptr %7, align 8, !tbaa !13
  %88 = load i32, ptr %13, align 4, !tbaa !11
  %89 = sub nsw i32 %88, 1
  %90 = sext i32 %89 to i64
  %91 = getelementptr inbounds double, ptr %87, i64 %90
  %92 = load double, ptr %91, align 8, !tbaa !20
  %93 = load i32, ptr %15, align 4, !tbaa !11
  %94 = sext i32 %93 to i64
  %95 = getelementptr inbounds [32 x double], ptr %10, i64 0, i64 %94
  %96 = load double, ptr %95, align 8, !tbaa !20
  %97 = call nsz double @llvm.fmuladd.f64(double %92, double %96, double %86)
  %98 = load i32, ptr %15, align 4, !tbaa !11
  %99 = sext i32 %98 to i64
  %100 = getelementptr inbounds [32 x double], ptr %11, i64 0, i64 %99
  store double %97, ptr %100, align 8, !tbaa !20
  %101 = load i32, ptr %15, align 4, !tbaa !11
  %102 = add nsw i32 %101, 1
  %103 = sext i32 %102 to i64
  %104 = getelementptr inbounds [32 x double], ptr %11, i64 0, i64 %103
  %105 = load double, ptr %104, align 8, !tbaa !20
  %106 = load ptr, ptr %7, align 8, !tbaa !13
  %107 = load i32, ptr %13, align 4, !tbaa !11
  %108 = sub nsw i32 %107, 1
  %109 = sext i32 %108 to i64
  %110 = getelementptr inbounds double, ptr %106, i64 %109
  %111 = load double, ptr %110, align 8, !tbaa !20
  %112 = load i32, ptr %15, align 4, !tbaa !11
  %113 = sext i32 %112 to i64
  %114 = getelementptr inbounds [32 x double], ptr %10, i64 0, i64 %113
  %115 = load double, ptr %114, align 8, !tbaa !20
  %116 = call nsz double @llvm.fmuladd.f64(double %105, double %111, double %115)
  %117 = load i32, ptr %15, align 4, !tbaa !11
  %118 = sext i32 %117 to i64
  %119 = getelementptr inbounds [32 x double], ptr %10, i64 0, i64 %118
  store double %116, ptr %119, align 8, !tbaa !20
  br label %120

120:                                              ; preds = %81
  %121 = load i32, ptr %15, align 4, !tbaa !11
  %122 = add nsw i32 %121, 1
  store i32 %122, ptr %15, align 4, !tbaa !11
  br label %74, !llvm.loop !24

123:                                              ; preds = %80
  %124 = getelementptr inbounds [32 x double], ptr %11, i64 0, i64 0
  %125 = load double, ptr %124, align 16, !tbaa !20
  %126 = fneg nsz double %125
  %127 = load double, ptr %9, align 8, !tbaa !20
  %128 = fcmp nsz une double %127, 0.000000e+00
  br i1 %128, label %129, label %131

129:                                              ; preds = %123
  %130 = load double, ptr %9, align 8, !tbaa !20
  br label %132

131:                                              ; preds = %123
  br label %132

132:                                              ; preds = %131, %129
  %133 = phi nsz double [ %130, %129 ], [ 1.000000e+00, %131 ]
  %134 = fdiv nsz double %126, %133
  %135 = load ptr, ptr %7, align 8, !tbaa !13
  %136 = load i32, ptr %13, align 4, !tbaa !11
  %137 = sext i32 %136 to i64
  %138 = getelementptr inbounds double, ptr %135, i64 %137
  store double %134, ptr %138, align 8, !tbaa !20
  %139 = getelementptr inbounds [32 x double], ptr %11, i64 0, i64 0
  %140 = load double, ptr %139, align 16, !tbaa !20
  %141 = load ptr, ptr %7, align 8, !tbaa !13
  %142 = load i32, ptr %13, align 4, !tbaa !11
  %143 = sext i32 %142 to i64
  %144 = getelementptr inbounds double, ptr %141, i64 %143
  %145 = load double, ptr %144, align 8, !tbaa !20
  %146 = load double, ptr %9, align 8, !tbaa !20
  %147 = call nsz double @llvm.fmuladd.f64(double %140, double %145, double %146)
  store double %147, ptr %9, align 8, !tbaa !20
  %148 = load ptr, ptr %8, align 8, !tbaa !13
  %149 = icmp ne ptr %148, null
  br i1 %149, label %150, label %156

150:                                              ; preds = %132
  %151 = load double, ptr %9, align 8, !tbaa !20
  %152 = load ptr, ptr %8, align 8, !tbaa !13
  %153 = load i32, ptr %13, align 4, !tbaa !11
  %154 = sext i32 %153 to i64
  %155 = getelementptr inbounds double, ptr %152, i64 %154
  store double %151, ptr %155, align 8, !tbaa !20
  br label %156

156:                                              ; preds = %150, %132
  br label %157

157:                                              ; preds = %156
  %158 = load i32, ptr %13, align 4, !tbaa !11
  %159 = add nsw i32 %158, 1
  store i32 %159, ptr %13, align 4, !tbaa !11
  br label %68, !llvm.loop !25

160:                                              ; preds = %72
  call void @llvm.lifetime.end.p0(i64 256, ptr %11) #9
  call void @llvm.lifetime.end.p0(i64 256, ptr %10) #9
  call void @llvm.lifetime.end.p0(i64 8, ptr %9) #9
  ret void
}

; Function Attrs: nounwind uwtable
define double @ff_lpc_calc_ref_coefs_f(ptr noundef %0, ptr noundef %1, i32 noundef %2, i32 noundef %3, ptr noundef %4) #0 {
  %6 = alloca ptr, align 8
  %7 = alloca ptr, align 8
  %8 = alloca i32, align 4
  %9 = alloca i32, align 4
  %10 = alloca ptr, align 8
  %11 = alloca i32, align 4
  %12 = alloca double, align 8
  %13 = alloca double, align 8
  %14 = alloca [33 x double], align 16
  %15 = alloca [33 x double], align 16
  %16 = alloca double, align 8
  %17 = alloca double, align 8
  %18 = alloca double, align 8
  store ptr %0, ptr %6, align 8, !tbaa !4
  store ptr %1, ptr %7, align 8, !tbaa !26
  store i32 %2, ptr %8, align 4, !tbaa !11
  store i32 %3, ptr %9, align 4, !tbaa !11
  store ptr %4, ptr %10, align 8, !tbaa !13
  call void @llvm.lifetime.start.p0(i64 4, ptr %11) #9
  call void @llvm.lifetime.start.p0(i64 8, ptr %12) #9
  store double 0.000000e+00, ptr %12, align 8, !tbaa !20
  call void @llvm.lifetime.start.p0(i64 8, ptr %13) #9
  store double 0.000000e+00, ptr %13, align 8, !tbaa !20
  call void @llvm.lifetime.start.p0(i64 264, ptr %14) #9
  call void @llvm.memset.p0.i64(ptr align 16 %14, i8 0, i64 264, i1 false)
  call void @llvm.lifetime.start.p0(i64 264, ptr %15) #9
  call void @llvm.memset.p0.i64(ptr align 16 %15, i8 0, i64 264, i1 false)
  call void @llvm.lifetime.start.p0(i64 8, ptr %16) #9
  store double 5.000000e-01, ptr %16, align 8, !tbaa !20
  call void @llvm.lifetime.start.p0(i64 8, ptr %17) #9
  store double 5.000000e-01, ptr %17, align 8, !tbaa !20
  store i32 0, ptr %11, align 4, !tbaa !11
  br label %19

19:                                               ; preds = %68, %5
  %20 = load i32, ptr %11, align 4, !tbaa !11
  %21 = load i32, ptr %8, align 4, !tbaa !11
  %22 = sdiv i32 %21, 2
  %23 = icmp sle i32 %20, %22
  br i1 %23, label %24, label %71

24:                                               ; preds = %19
  call void @llvm.lifetime.start.p0(i64 8, ptr %18) #9
  %25 = load i32, ptr %11, align 4, !tbaa !11
  %26 = sitofp i32 %25 to double
  %27 = fmul nsz double 0x401921FB54442D18, %26
  %28 = load i32, ptr %8, align 4, !tbaa !11
  %29 = sub nsw i32 %28, 1
  %30 = sitofp i32 %29 to double
  %31 = fdiv nsz double %27, %30
  %32 = call nsz double @llvm.cos.f64(double %31)
  %33 = call nsz double @llvm.fmuladd.f64(double -5.000000e-01, double %32, double 5.000000e-01)
  store double %33, ptr %18, align 8, !tbaa !20
  %34 = load double, ptr %18, align 8, !tbaa !20
  %35 = load ptr, ptr %7, align 8, !tbaa !26
  %36 = load i32, ptr %11, align 4, !tbaa !11
  %37 = sext i32 %36 to i64
  %38 = getelementptr inbounds float, ptr %35, i64 %37
  %39 = load float, ptr %38, align 4, !tbaa !28
  %40 = fpext nsz float %39 to double
  %41 = fmul nsz double %34, %40
  %42 = load ptr, ptr %6, align 8, !tbaa !4
  %43 = getelementptr inbounds nuw %struct.LPCContext, ptr %42, i32 0, i32 4
  %44 = load ptr, ptr %43, align 8, !tbaa !18
  %45 = load i32, ptr %11, align 4, !tbaa !11
  %46 = sext i32 %45 to i64
  %47 = getelementptr inbounds double, ptr %44, i64 %46
  store double %41, ptr %47, align 8, !tbaa !20
  %48 = load double, ptr %18, align 8, !tbaa !20
  %49 = load ptr, ptr %7, align 8, !tbaa !26
  %50 = load i32, ptr %8, align 4, !tbaa !11
  %51 = sub nsw i32 %50, 1
  %52 = load i32, ptr %11, align 4, !tbaa !11
  %53 = sub nsw i32 %51, %52
  %54 = sext i32 %53 to i64
  %55 = getelementptr inbounds float, ptr %49, i64 %54
  %56 = load float, ptr %55, align 4, !tbaa !28
  %57 = fpext nsz float %56 to double
  %58 = fmul nsz double %48, %57
  %59 = load ptr, ptr %6, align 8, !tbaa !4
  %60 = getelementptr inbounds nuw %struct.LPCContext, ptr %59, i32 0, i32 4
  %61 = load ptr, ptr %60, align 8, !tbaa !18
  %62 = load i32, ptr %8, align 4, !tbaa !11
  %63 = sub nsw i32 %62, 1
  %64 = load i32, ptr %11, align 4, !tbaa !11
  %65 = sub nsw i32 %63, %64
  %66 = sext i32 %65 to i64
  %67 = getelementptr inbounds double, ptr %61, i64 %66
  store double %58, ptr %67, align 8, !tbaa !20
  call void @llvm.lifetime.end.p0(i64 8, ptr %18) #9
  br label %68

68:                                               ; preds = %24
  %69 = load i32, ptr %11, align 4, !tbaa !11
  %70 = add nsw i32 %69, 1
  store i32 %70, ptr %11, align 4, !tbaa !11
  br label %19, !llvm.loop !30

71:                                               ; preds = %19
  %72 = load ptr, ptr %6, align 8, !tbaa !4
  %73 = getelementptr inbounds nuw %struct.LPCContext, ptr %72, i32 0, i32 6
  %74 = load ptr, ptr %73, align 8, !tbaa !19
  %75 = load ptr, ptr %6, align 8, !tbaa !4
  %76 = getelementptr inbounds nuw %struct.LPCContext, ptr %75, i32 0, i32 4
  %77 = load ptr, ptr %76, align 8, !tbaa !18
  %78 = load i32, ptr %8, align 4, !tbaa !11
  %79 = sext i32 %78 to i64
  %80 = load i32, ptr %9, align 4, !tbaa !11
  %81 = getelementptr inbounds [33 x double], ptr %14, i64 0, i64 0
  call void %74(ptr noundef %77, i64 noundef %79, i32 noundef %80, ptr noundef %81)
  %82 = getelementptr inbounds [33 x double], ptr %14, i64 0, i64 0
  %83 = load double, ptr %82, align 16, !tbaa !20
  store double %83, ptr %12, align 8, !tbaa !20
  %84 = getelementptr inbounds [33 x double], ptr %14, i64 0, i64 0
  %85 = load i32, ptr %9, align 4, !tbaa !11
  %86 = load ptr, ptr %10, align 8, !tbaa !13
  %87 = getelementptr inbounds [33 x double], ptr %15, i64 0, i64 0
  call void @compute_ref_coefs(ptr noundef %84, i32 noundef %85, ptr noundef %86, ptr noundef %87)
  store i32 0, ptr %11, align 4, !tbaa !11
  br label %88

88:                                               ; preds = %100, %71
  %89 = load i32, ptr %11, align 4, !tbaa !11
  %90 = load i32, ptr %9, align 4, !tbaa !11
  %91 = icmp slt i32 %89, %90
  br i1 %91, label %92, label %103

92:                                               ; preds = %88
  %93 = load double, ptr %13, align 8, !tbaa !20
  %94 = load i32, ptr %11, align 4, !tbaa !11
  %95 = sext i32 %94 to i64
  %96 = getelementptr inbounds [33 x double], ptr %15, i64 0, i64 %95
  %97 = load double, ptr %96, align 8, !tbaa !20
  %98 = fadd nsz double %93, %97
  %99 = fdiv nsz double %98, 2.000000e+00
  store double %99, ptr %13, align 8, !tbaa !20
  br label %100

100:                                              ; preds = %92
  %101 = load i32, ptr %11, align 4, !tbaa !11
  %102 = add nsw i32 %101, 1
  store i32 %102, ptr %11, align 4, !tbaa !11
  br label %88, !llvm.loop !31

103:                                              ; preds = %88
  %104 = load double, ptr %13, align 8, !tbaa !20
  %105 = fcmp nsz une double %104, 0.000000e+00
  br i1 %105, label %106, label %110

106:                                              ; preds = %103
  %107 = load double, ptr %12, align 8, !tbaa !20
  %108 = load double, ptr %13, align 8, !tbaa !20
  %109 = fdiv nsz double %107, %108
  br label %111

110:                                              ; preds = %103
  br label %111

111:                                              ; preds = %110, %106
  %112 = phi nsz double [ %109, %106 ], [ 0x7FF8000000000000, %110 ]
  call void @llvm.lifetime.end.p0(i64 8, ptr %17) #9
  call void @llvm.lifetime.end.p0(i64 8, ptr %16) #9
  call void @llvm.lifetime.end.p0(i64 264, ptr %15) #9
  call void @llvm.lifetime.end.p0(i64 264, ptr %14) #9
  call void @llvm.lifetime.end.p0(i64 8, ptr %13) #9
  call void @llvm.lifetime.end.p0(i64 8, ptr %12) #9
  call void @llvm.lifetime.end.p0(i64 4, ptr %11) #9
  ret double %112
}