; Function Attrs: nounwind uwtable
define double @ff_lpc_calc_ref_coefs_f(ptr noundef readonly captures(none) %0, ptr noundef readonly captures(none) %1, i32 noundef %2, i32 noundef %3, ptr noundef captures(none) %4) local_unnamed_addr #0 {
  %6 = alloca [32 x double], align 16
  %7 = alloca [32 x double], align 16
  %8 = alloca [33 x double], align 16
  %9 = alloca [33 x double], align 16
  call void @llvm.lifetime.start.p0(i64 264, ptr nonnull %8) #10
  call void @llvm.memset.p0.i64(ptr noundef nonnull align 16 dereferenceable(264) %8, i8 0, i64 264, i1 false)
  call void @llvm.lifetime.start.p0(i64 264, ptr nonnull %9) #10
  call void @llvm.memset.p0.i64(ptr noundef nonnull align 16 dereferenceable(264) %9, i8 0, i64 264, i1 false)
  %.not31 = icmp slt i32 %2, -1
  br i1 %.not31, label %.._crit_edge_crit_edge, label %.lr.ph

.._crit_edge_crit_edge:                           ; preds = %5
  %.phi.trans.insert = getelementptr inbounds nuw i8, ptr %0, i64 24
  %.pre = load ptr, ptr %.phi.trans.insert, align 8, !tbaa !12
  br label %._crit_edge

.lr.ph:                                           ; preds = %5
  %10 = sdiv i32 %2, 2
  %11 = add nsw i32 %2, -1
  %12 = sitofp i32 %11 to double
  %13 = getelementptr inbounds nuw i8, ptr %0, i64 24
  %14 = load ptr, ptr %13, align 8, !tbaa !12
  %15 = sext i32 %11 to i64
  %16 = add nuw nsw i32 %10, 1
  %wide.trip.count = zext nneg i32 %16 to i64
  br label %17

17:                                               ; preds = %.lr.ph, %17
  %indvars.iv = phi i64 [ 0, %.lr.ph ], [ %indvars.iv.next, %17 ]
  %18 = trunc nuw nsw i64 %indvars.iv to i32
  %19 = uitofp nneg i32 %18 to double
  %20 = fmul nsz double %19, 0x401921FB54442D18
  %21 = fdiv nsz double %20, %12
  %22 = tail call nsz double @llvm.cos.f64(double %21)
  %23 = tail call nsz double @llvm.fmuladd.f64(double %22, double -5.000000e-01, double 5.000000e-01)
  %24 = getelementptr inbounds nuw float, ptr %1, i64 %indvars.iv
  %25 = load float, ptr %24, align 4, !tbaa !19
  %26 = fpext nsz float %25 to double
  %27 = fmul nsz double %23, %26
  %28 = getelementptr inbounds nuw double, ptr %14, i64 %indvars.iv
  store double %27, ptr %28, align 8, !tbaa !14
  %29 = sub nsw i64 %15, %indvars.iv
  %30 = getelementptr inbounds float, ptr %1, i64 %29
  %31 = load float, ptr %30, align 4, !tbaa !19
  %32 = fpext nsz float %31 to double
  %33 = fmul nsz double %23, %32
  %34 = getelementptr inbounds double, ptr %14, i64 %29
  store double %33, ptr %34, align 8, !tbaa !14
  %indvars.iv.next = add nuw nsw i64 %indvars.iv, 1
  %exitcond.not = icmp eq i64 %indvars.iv.next, %wide.trip.count
  br i1 %exitcond.not, label %._crit_edge, label %17, !llvm.loop !21

._crit_edge:                                      ; preds = %17, %.._crit_edge_crit_edge
  %35 = phi ptr [ %.pre, %.._crit_edge_crit_edge ], [ %14, %17 ]
  %36 = getelementptr inbounds nuw i8, ptr %0, i64 40
  %37 = load ptr, ptr %36, align 8, !tbaa !13
  %38 = sext i32 %2 to i64
  call void %37(ptr noundef %35, i64 noundef %38, i32 noundef %3, ptr noundef nonnull %8) #10
  %39 = load double, ptr %8, align 16, !tbaa !14
  call void @llvm.lifetime.start.p0(i64 256, ptr nonnull %6) #10
  call void @llvm.lifetime.start.p0(i64 256, ptr nonnull %7) #10
  %40 = icmp sgt i32 %3, 0
  br i1 %40, label %.lr.ph.preheader.i, label %._crit_edge.i

.lr.ph.preheader.i:                               ; preds = %._crit_edge
  %scevgep.i = getelementptr inbounds nuw i8, ptr %8, i64 8
  %41 = zext nneg i32 %3 to i64
  %42 = shl nuw nsw i64 %41, 3
  call void @llvm.memcpy.p0.p0.i64(ptr nonnull align 16 %7, ptr nonnull readonly align 8 %scevgep.i, i64 %42, i1 false), !tbaa !14
  call void @llvm.memcpy.p0.p0.i64(ptr nonnull align 16 %6, ptr nonnull readonly align 8 %scevgep.i, i64 %42, i1 false), !tbaa !14
  %.pre.i = load double, ptr %7, align 16, !tbaa !14
  br label %._crit_edge.i

._crit_edge.i:                                    ; preds = %.lr.ph.preheader.i, %._crit_edge
  %43 = phi double [ %.pre.i, %.lr.ph.preheader.i ], [ undef, %._crit_edge ]
  %44 = fneg nsz double %43
  %45 = fcmp nsz une double %39, 0.000000e+00
  %46 = select nsz i1 %45, double %39, double 1.000000e+00
  %47 = fdiv nsz double %44, %46
  store double %47, ptr %4, align 8, !tbaa !14
  %48 = call nsz double @llvm.fmuladd.f64(double %43, double %47, double %39)
  store double %48, ptr %9, align 16, !tbaa !14
  %49 = icmp sgt i32 %3, 1
  br i1 %49, label %.preheader.preheader.i, label %compute_ref_coefs.exit

.preheader.preheader.i:                           ; preds = %._crit_edge.i
  %invariant.gep79.i = getelementptr i8, ptr %4, i64 -8
  %50 = zext nneg i32 %3 to i64
  br label %.preheader.i

.preheader.i:                                     ; preds = %._crit_edge51.i, %.preheader.preheader.i
  %51 = phi double [ %43, %.preheader.preheader.i ], [ %54, %._crit_edge51.i ]
  %indvars.iv60.i = phi i64 [ 1, %.preheader.preheader.i ], [ %indvars.iv.next61.i, %._crit_edge51.i ]
  %indvars.iv58.in.i = phi i32 [ %3, %.preheader.preheader.i ], [ %indvars.iv58.i, %._crit_edge51.i ]
  %.04552.i = phi double [ %48, %.preheader.preheader.i ], [ %60, %._crit_edge51.i ]
  %indvars.iv58.i = add i32 %indvars.iv58.in.i, -1
  %52 = icmp samesign ult i64 %indvars.iv60.i, %50
  br i1 %52, label %.lr.ph50.i, label %._crit_edge51.i

.lr.ph50.i:                                       ; preds = %.preheader.i
  %gep.i = getelementptr double, ptr %invariant.gep79.i, i64 %indvars.iv60.i
  %53 = load double, ptr %gep.i, align 8, !tbaa !14
  %wide.trip.count.i = zext i32 %indvars.iv58.i to i64
  br label %62

._crit_edge51.loopexit.i:                         ; preds = %62
  %.pre77.i = load double, ptr %7, align 16, !tbaa !14
  br label %._crit_edge51.i

._crit_edge51.i:                                  ; preds = %._crit_edge51.loopexit.i, %.preheader.i
  %54 = phi double [ %.pre77.i, %._crit_edge51.loopexit.i ], [ %51, %.preheader.i ]
  %55 = fneg nsz double %54
  %56 = fcmp nsz une double %.04552.i, 0.000000e+00
  %57 = select nsz i1 %56, double %.04552.i, double 1.000000e+00
  %58 = fdiv nsz double %55, %57
  %59 = getelementptr inbounds nuw double, ptr %4, i64 %indvars.iv60.i
  store double %58, ptr %59, align 8, !tbaa !14
  %60 = call nsz double @llvm.fmuladd.f64(double %54, double %58, double %.04552.i)
  %61 = getelementptr inbounds nuw double, ptr %9, i64 %indvars.iv60.i
  store double %60, ptr %61, align 8, !tbaa !14
  %indvars.iv.next61.i = add nuw nsw i64 %indvars.iv60.i, 1
  %exitcond64.not.i = icmp eq i64 %indvars.iv.next61.i, %50
  br i1 %exitcond64.not.i, label %compute_ref_coefs.exit, label %.preheader.i, !llvm.loop !16

62:                                               ; preds = %62, %.lr.ph50.i
  %indvars.iv.i = phi i64 [ 0, %.lr.ph50.i ], [ %indvars.iv.next.i, %62 ]
  %indvars.iv.next.i = add nuw nsw i64 %indvars.iv.i, 1
  %63 = getelementptr inbounds nuw [32 x double], ptr %7, i64 0, i64 %indvars.iv.next.i
  %64 = load double, ptr %63, align 8, !tbaa !14
  %65 = getelementptr inbounds nuw [32 x double], ptr %6, i64 0, i64 %indvars.iv.i
  %66 = load double, ptr %65, align 8, !tbaa !14
  %67 = call nsz double @llvm.fmuladd.f64(double %53, double %66, double %64)
  %68 = getelementptr inbounds nuw [32 x double], ptr %7, i64 0, i64 %indvars.iv.i
  store double %67, ptr %68, align 8, !tbaa !14
  %69 = call nsz double @llvm.fmuladd.f64(double %64, double %53, double %66)
  store double %69, ptr %65, align 8, !tbaa !14
  %exitcond.not.i = icmp eq i64 %indvars.iv.next.i, %wide.trip.count.i
  br i1 %exitcond.not.i, label %._crit_edge51.loopexit.i, label %62, !llvm.loop !18

compute_ref_coefs.exit:                           ; preds = %._crit_edge51.i, %._crit_edge.i
  call void @llvm.lifetime.end.p0(i64 256, ptr nonnull %7) #10
  call void @llvm.lifetime.end.p0(i64 256, ptr nonnull %6) #10
  br i1 %40, label %.lr.ph35.preheader, label %._crit_edge36

.lr.ph35.preheader:                               ; preds = %compute_ref_coefs.exit
  %wide.trip.count41 = zext nneg i32 %3 to i64
  br label %.lr.ph35

.lr.ph35:                                         ; preds = %.lr.ph35.preheader, %.lr.ph35
  %indvars.iv38 = phi i64 [ 0, %.lr.ph35.preheader ], [ %indvars.iv.next39, %.lr.ph35 ]
  %.03033 = phi double [ 0.000000e+00, %.lr.ph35.preheader ], [ %73, %.lr.ph35 ]
  %70 = getelementptr inbounds nuw [33 x double], ptr %9, i64 0, i64 %indvars.iv38
  %71 = load double, ptr %70, align 8, !tbaa !14
  %72 = fadd nsz double %.03033, %71
  %73 = fmul nsz double %72, 5.000000e-01
  %indvars.iv.next39 = add nuw nsw i64 %indvars.iv38, 1
  %exitcond42.not = icmp eq i64 %indvars.iv.next39, %wide.trip.count41
  br i1 %exitcond42.not, label %._crit_edge36, label %.lr.ph35, !llvm.loop !22

._crit_edge36:                                    ; preds = %.lr.ph35, %compute_ref_coefs.exit
  %.030.lcssa = phi double [ 0.000000e+00, %compute_ref_coefs.exit ], [ %73, %.lr.ph35 ]
  %74 = fcmp nsz une double %.030.lcssa, 0.000000e+00
  %75 = fdiv nsz double %39, %.030.lcssa
  %76 = select nsz i1 %74, double %75, double 0x7FF8000000000000
  call void @llvm.lifetime.end.p0(i64 264, ptr nonnull %9) #10
  call void @llvm.lifetime.end.p0(i64 264, ptr nonnull %8) #10
  ret double %76
}